target datalayout = "e-m:e-p270:32:32-p271:32:32-p272:64:64-i64:64-i128:128-f80:128-n8:16:32:64-S128"
target triple = "x86_64-pc-linux-gnu"

%struct.AVCodecContext = type { ptr, i32, i32, ptr, i32, i32, ptr, ptr, ptr, i64, i32, i32, ptr, i32, %struct.AVRational, %struct.AVRational, %struct.AVRational, i32, i32, i32, i32, i32, %struct.AVRational, i32, i32, i32, i32, i32, i32, i32, i32, i32, i32, i32, ptr, ptr, i32, float, float, float, float, float, float, float, float, float, i32, i32, i32, i32, i32, i32, i32, i32, i32, i32, i32, i32, ptr, ptr, ptr, i32, i32, i32, i32, i32, i32, i32, i32, i32, i32, %struct.AVChannelLayout, i32, i32, i32, i32, i32, i32, i32, i32, ptr, i32, i32, i32, float, float, i32, i32, i32, i32, i32, ptr, i64, i64, float, float, i32, i32, ptr, ptr, i32, i32, i32, i32, i32, ptr, ptr, ptr, ptr, i32, i32, [8 x i64], i32, i32, i32, i32, i32, i32, i32, ptr, ptr, i32, i32, i32, i32, i32, i32, i32, i32, i32, i32, ptr, ptr, i32, i32, ptr, ptr, ptr, ptr, i32, i32, i64, i32, i32, i64, ptr, i64, ptr, i32, ptr, i32 }
%struct.AVRational = type { i32, i32 }
%struct.AVChannelLayout = type { i32, i32, %union.anon, ptr }
%union.anon = type { i64 }
%struct.DCAContext = type { ptr, ptr, %struct.DCACoreDecoder, %struct.DCAExssParser, %struct.DCAXllDecoder, %struct.DCALbrDecoder, %struct.DCADSPContext, ptr, ptr, i32, i32, i32, i32, i32, %struct.AVChannelLayout }
%struct.DCACoreDecoder = type { ptr, %struct.GetBitContext, %struct.GetBitContext, i32, i32, i32, i32, i32, i32, i32, i32, i32, i32, i32, i32, i32, i32, i32, i32, i32, i32, i32, i32, i32, i32, [7 x i8], [7 x i8], [7 x i8], [7 x i8], [7 x i8], [7 x i8], [7 x [10 x i8]], [7 x [10 x i32]], [16 x i8], [7 x [64 x i8]], [7 x [64 x i16]], [7 x [64 x i8]], [16 x [7 x [32 x i8]]], [7 x [32 x [2 x i32]]], [7 x i8], [7 x [64 x i32]], i32, i32, [24 x i32], i32, i32, i32, i32, i32, i32, i32, i32, [2 x i32], [12 x i32], i32, i32, i32, i32, i32, i32, i32, i32, i32, ptr, [7 x [64 x ptr]], i32, ptr, [7 x [32 x ptr]], ptr, [8 x i8], [7 x %struct.DCADSPData], ptr, %struct.DCADCTContext, [2 x ptr], [2 x ptr], %struct.SynthFilterContext, ptr, ptr, i32, ptr, [32 x ptr], i32, float, [32 x i32], i32, i32, i32, i32 }
%struct.GetBitContext = type { ptr, ptr, i32, i32, i32 }
%struct.DCADSPData = type { %union.anon.0, i32, [12 x i8] }
%union.anon.0 = type { %struct.anon }
%struct.anon = type { [1024 x float], [64 x float] }
%struct.DCADCTContext = type { [2 x ptr] }
%struct.SynthFilterContext = type { ptr, ptr, ptr, ptr }
%struct.DCAExssParser = type { ptr, %struct.GetBitContext, i32, i32, i32, i32, i32, i32, i32, i32, [4 x i32], [1 x %struct.DCAExssAsset] }
%struct.DCAExssAsset = type { i32, i32, i32, i32, i32, i32, i32, i32, i32, i32, i32, i32, i32, i32, i32, i32, i32, i32, i32, i32, i32, i32, i32, i32, i32, i32, i32, i32, i32, i32 }
%struct.DCAXllDecoder = type { ptr, %struct.GetBitContext, i32, i32, i32, i32, i32, i32, i32, i32, i32, i32, i32, i32, [8 x i8], [3 x %struct.DCAXllChSet], ptr, i32, i32, i32, i32, i32, i32, ptr, i32, i32, ptr, i32, i32, i32, [32 x ptr], [8 x i8] }
%struct.DCAXllChSet = type { i32, i32, i32, i32, i32, i32, i32, i32, i32, i32, i32, [128 x i32], [16 x i32], [16 x i32], i32, [8 x i32], i32, i32, [2 x %struct.DCAXllBand], i32, [8 x i32], [8 x i32], [8 x i32], [8 x i32], [8 x i32], [4 x i8], [8 x [8 x i32]], [3 x i32], [3 x ptr], [8 x i8] }
%struct.DCAXllBand = type { i32, [8 x i32], [4 x i32], [8 x i32], i32, [8 x i32], [8 x [16 x i32]], i32, i32, [8 x i32], [8 x i32], [8 x ptr], [8 x ptr] }
%struct.DCALbrDecoder = type { ptr, %struct.GetBitContext, i32, i32, i32, i32, i32, i32, i32, i32, i32, i32, i32, i32, i32, i32, i32, i32, i32, i32, i32, [3 x [32 x i8]], [32 x i8], [3 x [32 x i8]], [3 x [32 x i8]], [6 x i32], [6 x [12 x [8 x i8]]], [6 x [3 x [64 x i8]]], [6 x [28 x i8]], [6 x [28 x [8 x i8]]], [6 x i32], [6 x [32 x [8 x i8]]], [6 x [8 x [5 x i8]]], i8, [2 x [6 x [3 x [2 x [8 x float]]]]], [32 x float], [6 x [32 x ptr]], ptr, i32, [4 x i8], [6 x [128 x float]], [128 x float], [64 x float], [5 x [2 x float]], float, [6 x i8], [5 x [32 x [2 x i16]]], [512 x %struct.DCALbrTone], i32, ptr, ptr, ptr, ptr, [8 x i8] }
%struct.DCALbrTone = type { i8, i8, i8, i8, [6 x i8], [6 x i8] }
%struct.DCADSPContext = type { ptr, ptr, [2 x ptr], ptr, [2 x ptr], ptr, ptr, [2 x ptr], ptr, ptr, ptr, ptr, ptr, ptr, ptr, ptr, ptr }

@dcadec_init.init_static_once = internal global i32 0, align 4
@.str.18 = private unnamed_addr constant [24 x i8] c"Invalid downmix layout\0A\00", align 1

; Function Attrs: cold nounwind optsize uwtable
define internal i32 @dcadec_init(ptr noundef %0) #5 {
  %2 = alloca i32, align 4
  %3 = alloca ptr, align 8
  %4 = alloca ptr, align 8
  %5 = alloca i32, align 4
  %6 = alloca %struct.AVChannelLayout, align 8
  %7 = alloca %struct.AVChannelLayout, align 8
  %8 = alloca %struct.AVChannelLayout, align 8
  %9 = alloca %struct.AVChannelLayout, align 8
  %10 = alloca %struct.AVChannelLayout, align 8
  %11 = alloca %struct.AVChannelLayout, align 8
  %12 = alloca %struct.AVChannelLayout, align 8
  store ptr %0, ptr %3, align 8, !tbaa !4
  call void @llvm.lifetime.start.p0(i64 8, ptr %4) #8
  %13 = load ptr, ptr %3, align 8, !tbaa !4
  %14 = getelementptr inbounds nuw %struct.AVCodecContext, ptr %13, i32 0, i32 6
  %15 = load ptr, ptr %14, align 8, !tbaa !13
  store ptr %15, ptr %4, align 8, !tbaa !31
  %16 = load ptr, ptr %3, align 8, !tbaa !4
  %17 = load ptr, ptr %4, align 8, !tbaa !31
  %18 = getelementptr inbounds nuw %struct.DCAContext, ptr %17, i32 0, i32 1
  store ptr %16, ptr %18, align 8, !tbaa !71
  %19 = load ptr, ptr %3, align 8, !tbaa !4
  %20 = load ptr, ptr %4, align 8, !tbaa !31
  %21 = getelementptr inbounds nuw %struct.DCAContext, ptr %20, i32 0, i32 2
  %22 = getelementptr inbounds nuw %struct.DCACoreDecoder, ptr %21, i32 0, i32 0
  store ptr %19, ptr %22, align 16, !tbaa !72
  %23 = load ptr, ptr %3, align 8, !tbaa !4
  %24 = load ptr, ptr %4, align 8, !tbaa !31
  %25 = getelementptr inbounds nuw %struct.DCAContext, ptr %24, i32 0, i32 3
  %26 = getelementptr inbounds nuw %struct.DCAExssParser, ptr %25, i32 0, i32 0
  store ptr %23, ptr %26, align 16, !tbaa !73
  %27 = load ptr, ptr %3, align 8, !tbaa !4
  %28 = load ptr, ptr %4, align 8, !tbaa !31
  %29 = getelementptr inbounds nuw %struct.DCAContext, ptr %28, i32 0, i32 4
  %30 = getelementptr inbounds nuw %struct.DCAXllDecoder, ptr %29, i32 0, i32 0
  store ptr %27, ptr %30, align 16, !tbaa !74
  %31 = load ptr, ptr %3, align 8, !tbaa !4
  %32 = load ptr, ptr %4, align 8, !tbaa !31
  %33 = getelementptr inbounds nuw %struct.DCAContext, ptr %32, i32 0, i32 5
  %34 = getelementptr inbounds nuw %struct.DCALbrDecoder, ptr %33, i32 0, i32 0
  store ptr %31, ptr %34, align 16, !tbaa !75
  %35 = load ptr, ptr %4, align 8, !tbaa !31
  %36 = getelementptr inbounds nuw %struct.DCAContext, ptr %35, i32 0, i32 2
  %37 = call i32 @ff_dca_core_init(ptr noundef %36) #11
  %38 = icmp slt i32 %37, 0
  br i1 %38, label %39, label %40

39:                                               ; preds = %1
  store i32 -12, ptr %2, align 4
  store i32 1, ptr %5, align 4
  br label %148

40:                                               ; preds = %1
  %41 = load ptr, ptr %4, align 8, !tbaa !31
  %42 = getelementptr inbounds nuw %struct.DCAContext, ptr %41, i32 0, i32 5
  %43 = call i32 @ff_dca_lbr_init(ptr noundef %42) #11
  %44 = icmp slt i32 %43, 0
  br i1 %44, label %45, label %46

45:                                               ; preds = %40
  store i32 -12, ptr %2, align 4
  store i32 1, ptr %5, align 4
  br label %148

46:                                               ; preds = %40
  %47 = load ptr, ptr %4, align 8, !tbaa !31
  %48 = getelementptr inbounds nuw %struct.DCAContext, ptr %47, i32 0, i32 6
  call void @ff_dcadsp_init(ptr noundef %48) #11
  %49 = load ptr, ptr %4, align 8, !tbaa !31
  %50 = getelementptr inbounds nuw %struct.DCAContext, ptr %49, i32 0, i32 6
  %51 = load ptr, ptr %4, align 8, !tbaa !31
  %52 = getelementptr inbounds nuw %struct.DCAContext, ptr %51, i32 0, i32 2
  %53 = getelementptr inbounds nuw %struct.DCACoreDecoder, ptr %52, i32 0, i32 71
  store ptr %50, ptr %53, align 16, !tbaa !76
  %54 = load ptr, ptr %4, align 8, !tbaa !31
  %55 = getelementptr inbounds nuw %struct.DCAContext, ptr %54, i32 0, i32 6
  %56 = load ptr, ptr %4, align 8, !tbaa !31
  %57 = getelementptr inbounds nuw %struct.DCAContext, ptr %56, i32 0, i32 4
  %58 = getelementptr inbounds nuw %struct.DCAXllDecoder, ptr %57, i32 0, i32 26
  store ptr %55, ptr %58, align 16, !tbaa !77
  %59 = load ptr, ptr %4, align 8, !tbaa !31
  %60 = getelementptr inbounds nuw %struct.DCAContext, ptr %59, i32 0, i32 6
  %61 = load ptr, ptr %4, align 8, !tbaa !31
  %62 = getelementptr inbounds nuw %struct.DCAContext, ptr %61, i32 0, i32 5
  %63 = getelementptr inbounds nuw %struct.DCALbrDecoder, ptr %62, i32 0, i32 52
  store ptr %60, ptr %63, align 16, !tbaa !78
  %64 = call ptr @av_crc_get_table(i32 noundef 2)
  %65 = load ptr, ptr %4, align 8, !tbaa !31
  %66 = getelementptr inbounds nuw %struct.DCAContext, ptr %65, i32 0, i32 7
  store ptr %64, ptr %66, align 16, !tbaa !79
  %67 = load ptr, ptr %4, align 8, !tbaa !31
  %68 = getelementptr inbounds nuw %struct.DCAContext, ptr %67, i32 0, i32 14
  %69 = getelementptr inbounds nuw %struct.AVChannelLayout, ptr %68, i32 0, i32 1
  %70 = load i32, ptr %69, align 4, !tbaa !80
  %71 = icmp ne i32 %70, 0
  br i1 %71, label %72, label %146

72:                                               ; preds = %46
  %73 = load ptr, ptr %4, align 8, !tbaa !31
  %74 = getelementptr inbounds nuw %struct.DCAContext, ptr %73, i32 0, i32 14
  %75 = getelementptr inbounds nuw %struct.AVChannelLayout, ptr %6, i32 0, i32 0
  store i32 1, ptr %75, align 8, !tbaa !81
  %76 = getelementptr inbounds nuw %struct.AVChannelLayout, ptr %6, i32 0, i32 1
  store i32 2, ptr %76, align 4, !tbaa !82
  %77 = getelementptr inbounds nuw %struct.AVChannelLayout, ptr %6, i32 0, i32 2
  store i64 3, ptr %77, align 8, !tbaa !53
  %78 = getelementptr inbounds nuw %struct.AVChannelLayout, ptr %6, i32 0, i32 3
  store ptr null, ptr %78, align 8, !tbaa !83
  %79 = call i32 @av_channel_layout_compare(ptr noundef %74, ptr noundef %6)
  %80 = icmp ne i32 %79, 0
  br i1 %80, label %81, label %90

81:                                               ; preds = %72
  %82 = load ptr, ptr %4, align 8, !tbaa !31
  %83 = getelementptr inbounds nuw %struct.DCAContext, ptr %82, i32 0, i32 14
  %84 = getelementptr inbounds nuw %struct.AVChannelLayout, ptr %7, i32 0, i32 0
  store i32 1, ptr %84, align 8, !tbaa !81
  %85 = getelementptr inbounds nuw %struct.AVChannelLayout, ptr %7, i32 0, i32 1
  store i32 2, ptr %85, align 4, !tbaa !82
  %86 = getelementptr inbounds nuw %struct.AVChannelLayout, ptr %7, i32 0, i32 2
  store i64 1610612736, ptr %86, align 8, !tbaa !53
  %87 = getelementptr inbounds nuw %struct.AVChannelLayout, ptr %7, i32 0, i32 3
  store ptr null, ptr %87, align 8, !tbaa !83
  %88 = call i32 @av_channel_layout_compare(ptr noundef %83, ptr noundef %7)
  %89 = icmp ne i32 %88, 0
  br i1 %89, label %101, label %90

90:                                               ; preds = %81, %72
  %91 = load ptr, ptr %4, align 8, !tbaa !31
  %92 = getelementptr inbounds nuw %struct.DCAContext, ptr %91, i32 0, i32 11
  store i32 6, ptr %92, align 8, !tbaa !84
  %93 = load ptr, ptr %3, align 8, !tbaa !4
  %94 = getelementptr inbounds nuw %struct.AVCodecContext, ptr %93, i32 0, i32 71
  call void @av_channel_layout_uninit(ptr noundef %94)
  %95 = load ptr, ptr %3, align 8, !tbaa !4
  %96 = getelementptr inbounds nuw %struct.AVCodecContext, ptr %95, i32 0, i32 71
  %97 = getelementptr inbounds nuw %struct.AVChannelLayout, ptr %8, i32 0, i32 0
  store i32 1, ptr %97, align 8, !tbaa !81
  %98 = getelementptr inbounds nuw %struct.AVChannelLayout, ptr %8, i32 0, i32 1
  store i32 2, ptr %98, align 4, !tbaa !82
  %99 = getelementptr inbounds nuw %struct.AVChannelLayout, ptr %8, i32 0, i32 2
  store i64 3, ptr %99, align 8, !tbaa !53
  %100 = getelementptr inbounds nuw %struct.AVChannelLayout, ptr %8, i32 0, i32 3
  store ptr null, ptr %100, align 8, !tbaa !83
  call void @llvm.memcpy.p0.p0.i64(ptr align 8 %96, ptr align 8 %8, i64 24, i1 false), !tbaa.struct !85
  br label %145

101:                                              ; preds = %81
  %102 = load ptr, ptr %4, align 8, !tbaa !31
  %103 = getelementptr inbounds nuw %struct.DCAContext, ptr %102, i32 0, i32 14
  %104 = getelementptr inbounds nuw %struct.AVChannelLayout, ptr %9, i32 0, i32 0
  store i32 1, ptr %104, align 8, !tbaa !81
  %105 = getelementptr inbounds nuw %struct.AVChannelLayout, ptr %9, i32 0, i32 1
  store i32 5, ptr %105, align 4, !tbaa !82
  %106 = getelementptr inbounds nuw %struct.AVChannelLayout, ptr %9, i32 0, i32 2
  store i64 1543, ptr %106, align 8, !tbaa !53
  %107 = getelementptr inbounds nuw %struct.AVChannelLayout, ptr %9, i32 0, i32 3
  store ptr null, ptr %107, align 8, !tbaa !83
  %108 = call i32 @av_channel_layout_compare(ptr noundef %103, ptr noundef %9)
  %109 = icmp ne i32 %108, 0
  br i1 %109, label %121, label %110

110:                                              ; preds = %101
  %111 = load ptr, ptr %4, align 8, !tbaa !31
  %112 = getelementptr inbounds nuw %struct.DCAContext, ptr %111, i32 0, i32 11
  store i32 31, ptr %112, align 8, !tbaa !84
  %113 = load ptr, ptr %3, align 8, !tbaa !4
  %114 = getelementptr inbounds nuw %struct.AVCodecContext, ptr %113, i32 0, i32 71
  call void @av_channel_layout_uninit(ptr noundef %114)
  %115 = load ptr, ptr %3, align 8, !tbaa !4
  %116 = getelementptr inbounds nuw %struct.AVCodecContext, ptr %115, i32 0, i32 71
  %117 = getelementptr inbounds nuw %struct.AVChannelLayout, ptr %10, i32 0, i32 0
  store i32 1, ptr %117, align 8, !tbaa !81
  %118 = getelementptr inbounds nuw %struct.AVChannelLayout, ptr %10, i32 0, i32 1
  store i32 5, ptr %118, align 4, !tbaa !82
  %119 = getelementptr inbounds nuw %struct.AVChannelLayout, ptr %10, i32 0, i32 2
  store i64 1543, ptr %119, align 8, !tbaa !53
  %120 = getelementptr inbounds nuw %struct.AVChannelLayout, ptr %10, i32 0, i32 3
  store ptr null, ptr %120, align 8, !tbaa !83
  call void @llvm.memcpy.p0.p0.i64(ptr align 8 %116, ptr align 8 %10, i64 24, i1 false), !tbaa.struct !85
  br label %144

121:                                              ; preds = %101
  %122 = load ptr, ptr %4, align 8, !tbaa !31
  %123 = getelementptr inbounds nuw %struct.DCAContext, ptr %122, i32 0, i32 14
  %124 = getelementptr inbounds nuw %struct.AVChannelLayout, ptr %11, i32 0, i32 0
  store i32 1, ptr %124, align 8, !tbaa !81
  %125 = getelementptr inbounds nuw %struct.AVChannelLayout, ptr %11, i32 0, i32 1
  store i32 6, ptr %125, align 4, !tbaa !82
  %126 = getelementptr inbounds nuw %struct.AVChannelLayout, ptr %11, i32 0, i32 2
  store i64 1551, ptr %126, align 8, !tbaa !53
  %127 = getelementptr inbounds nuw %struct.AVChannelLayout, ptr %11, i32 0, i32 3
  store ptr null, ptr %127, align 8, !tbaa !83
  %128 = call i32 @av_channel_layout_compare(ptr noundef %123, ptr noundef %11)
  %129 = icmp ne i32 %128, 0
  br i1 %129, label %141, label %130

130:                                              ; preds = %121
  %131 = load ptr, ptr %4, align 8, !tbaa !31
  %132 = getelementptr inbounds nuw %struct.DCAContext, ptr %131, i32 0, i32 11
  store i32 63, ptr %132, align 8, !tbaa !84
  %133 = load ptr, ptr %3, align 8, !tbaa !4
  %134 = getelementptr inbounds nuw %struct.AVCodecContext, ptr %133, i32 0, i32 71
  call void @av_channel_layout_uninit(ptr noundef %134)
  %135 = load ptr, ptr %3, align 8, !tbaa !4
  %136 = getelementptr inbounds nuw %struct.AVCodecContext, ptr %135, i32 0, i32 71
  %137 = getelementptr inbounds nuw %struct.AVChannelLayout, ptr %12, i32 0, i32 0
  store i32 1, ptr %137, align 8, !tbaa !81
  %138 = getelementptr inbounds nuw %struct.AVChannelLayout, ptr %12, i32 0, i32 1
  store i32 6, ptr %138, align 4, !tbaa !82
  %139 = getelementptr inbounds nuw %struct.AVChannelLayout, ptr %12, i32 0, i32 2
  store i64 1551, ptr %139, align 8, !tbaa !53
  %140 = getelementptr inbounds nuw %struct.AVChannelLayout, ptr %12, i32 0, i32 3
  store ptr null, ptr %140, align 8, !tbaa !83
  call void @llvm.memcpy.p0.p0.i64(ptr align 8 %136, ptr align 8 %12, i64 24, i1 false), !tbaa.struct !85
  br label %143

141:                                              ; preds = %121
  %142 = load ptr, ptr %3, align 8, !tbaa !4
  call void (ptr, i32, ptr, ...) @av_log(ptr noundef %142, i32 noundef 24, ptr noundef @.str.18)
  br label %143

143:                                              ; preds = %141, %130
  br label %144

144:                                              ; preds = %143, %110
  br label %145

145:                                              ; preds = %144, %90
  br label %146

146:                                              ; preds = %145, %46
  %147 = call i32 @pthread_once(ptr noundef @dcadec_init.init_static_once, ptr noundef @dcadec_init_static)
  store i32 0, ptr %2, align 4
  store i32 1, ptr %5, align 4
  br label %148

148:                                              ; preds = %146, %45, %39
  call void @llvm.lifetime.end.p0(i64 8, ptr %4) #8
  %149 = load i32, ptr %2, align 4
  ret i32 %149
}