; Function Attrs: cold nounwind optsize uwtable
define internal range(i32 -12, 1) i32 @dcadec_init(ptr noundef %0) #4 {
  %2 = alloca %struct.AVChannelLayout, align 8
  %3 = alloca %struct.AVChannelLayout, align 8
  %4 = alloca %struct.AVChannelLayout, align 8
  %5 = alloca %struct.AVChannelLayout, align 8
  %6 = getelementptr inbounds nuw i8, ptr %0, i64 32
  %7 = load ptr, ptr %6, align 8, !tbaa !4
  %8 = getelementptr inbounds nuw i8, ptr %7, i64 8
  store ptr %0, ptr %8, align 8, !tbaa !60
  %9 = getelementptr inbounds nuw i8, ptr %7, i64 16
  store ptr %0, ptr %9, align 16, !tbaa !61
  %10 = getelementptr inbounds nuw i8, ptr %7, i64 46304
  store ptr %0, ptr %10, align 16, !tbaa !62
  %11 = getelementptr inbounds nuw i8, ptr %7, i64 46512
  store ptr %0, ptr %11, align 16, !tbaa !63
  %12 = getelementptr inbounds nuw i8, ptr %7, i64 55536
  store ptr %0, ptr %12, align 16, !tbaa !64
  %13 = tail call i32 @ff_dca_core_init(ptr noundef nonnull %9) #9
  %14 = icmp slt i32 %13, 0
  br i1 %14, label %60, label %15

15:                                               ; preds = %1
  %16 = tail call i32 @ff_dca_lbr_init(ptr noundef nonnull %12) #9
  %17 = icmp slt i32 %16, 0
  br i1 %17, label %60, label %18

18:                                               ; preds = %15
  %19 = getelementptr inbounds nuw i8, ptr %7, i64 77792
  tail call void @ff_dcadsp_init(ptr noundef nonnull %19) #9
  %20 = getelementptr inbounds nuw i8, ptr %7, i64 45776
  store ptr %19, ptr %20, align 16, !tbaa !65
  %21 = getelementptr inbounds nuw i8, ptr %7, i64 55248
  store ptr %19, ptr %21, align 16, !tbaa !66
  %22 = getelementptr inbounds nuw i8, ptr %7, i64 77776
  store ptr %19, ptr %22, align 16, !tbaa !67
  %23 = tail call ptr @av_crc_get_table(i32 noundef 2) #7
  %24 = getelementptr inbounds nuw i8, ptr %7, i64 77952
  store ptr %23, ptr %24, align 16, !tbaa !68
  %25 = getelementptr inbounds nuw i8, ptr %7, i64 77992
  %26 = getelementptr inbounds nuw i8, ptr %7, i64 77996
  %27 = load i32, ptr %26, align 4, !tbaa !69
  %.not = icmp eq i32 %27, 0
  br i1 %.not, label %58, label %28

28:                                               ; preds = %18
  store i32 1, ptr %2, align 8, !tbaa !70
  %29 = getelementptr inbounds nuw i8, ptr %2, i64 4
  store i32 2, ptr %29, align 4, !tbaa !71
  %30 = getelementptr inbounds nuw i8, ptr %2, i64 8
  store i64 3, ptr %30, align 8, !tbaa !48
  %31 = getelementptr inbounds nuw i8, ptr %2, i64 16
  store ptr null, ptr %31, align 8, !tbaa !72
  %32 = call i32 @av_channel_layout_compare(ptr noundef nonnull %25, ptr noundef nonnull %2) #7
  %.not44 = icmp eq i32 %32, 0
  br i1 %.not44, label %38, label %33

33:                                               ; preds = %28
  store i32 1, ptr %3, align 8, !tbaa !70
  %34 = getelementptr inbounds nuw i8, ptr %3, i64 4
  store i32 2, ptr %34, align 4, !tbaa !71
  %35 = getelementptr inbounds nuw i8, ptr %3, i64 8
  store i64 1610612736, ptr %35, align 8, !tbaa !48
  %36 = getelementptr inbounds nuw i8, ptr %3, i64 16
  store ptr null, ptr %36, align 8, !tbaa !72
  %37 = call i32 @av_channel_layout_compare(ptr noundef nonnull %25, ptr noundef nonnull %3) #7
  %.not45 = icmp eq i32 %37, 0
  br i1 %.not45, label %38, label %41

38:                                               ; preds = %33, %28
  %39 = getelementptr inbounds nuw i8, ptr %7, i64 77976
  store i32 6, ptr %39, align 8, !tbaa !73
  %40 = getelementptr inbounds nuw i8, ptr %0, i64 352
  call void @av_channel_layout_uninit(ptr noundef nonnull %40) #7
  store i32 1, ptr %40, align 8, !tbaa !43
  %.sroa.26.0..sroa_idx = getelementptr inbounds nuw i8, ptr %0, i64 356
  store i32 2, ptr %.sroa.26.0..sroa_idx, align 4, !tbaa !43
  %.sroa.37.0..sroa_idx = getelementptr inbounds nuw i8, ptr %0, i64 360
  store i64 3, ptr %.sroa.37.0..sroa_idx, align 8, !tbaa !48
  %.sroa.48.0..sroa_idx = getelementptr inbounds nuw i8, ptr %0, i64 368
  store ptr null, ptr %.sroa.48.0..sroa_idx, align 8, !tbaa !74
  br label %58

41:                                               ; preds = %33
  store i32 1, ptr %4, align 8, !tbaa !70
  %42 = getelementptr inbounds nuw i8, ptr %4, i64 4
  store i32 5, ptr %42, align 4, !tbaa !71
  %43 = getelementptr inbounds nuw i8, ptr %4, i64 8
  store i64 1543, ptr %43, align 8, !tbaa !48
  %44 = getelementptr inbounds nuw i8, ptr %4, i64 16
  store ptr null, ptr %44, align 8, !tbaa !72
  %45 = call i32 @av_channel_layout_compare(ptr noundef nonnull %25, ptr noundef nonnull %4) #7
  %.not46 = icmp eq i32 %45, 0
  br i1 %.not46, label %46, label %49

46:                                               ; preds = %41
  %47 = getelementptr inbounds nuw i8, ptr %7, i64 77976
  store i32 31, ptr %47, align 8, !tbaa !73
  %48 = getelementptr inbounds nuw i8, ptr %0, i64 352
  call void @av_channel_layout_uninit(ptr noundef nonnull %48) #7
  store i32 1, ptr %48, align 8, !tbaa !43
  %.sroa.22.0..sroa_idx = getelementptr inbounds nuw i8, ptr %0, i64 356
  store i32 5, ptr %.sroa.22.0..sroa_idx, align 4, !tbaa !43
  %.sroa.33.0..sroa_idx = getelementptr inbounds nuw i8, ptr %0, i64 360
  store i64 1543, ptr %.sroa.33.0..sroa_idx, align 8, !tbaa !48
  %.sroa.44.0..sroa_idx = getelementptr inbounds nuw i8, ptr %0, i64 368
  store ptr null, ptr %.sroa.44.0..sroa_idx, align 8, !tbaa !74
  br label %58

49:                                               ; preds = %41
  store i32 1, ptr %5, align 8, !tbaa !70
  %50 = getelementptr inbounds nuw i8, ptr %5, i64 4
  store i32 6, ptr %50, align 4, !tbaa !71
  %51 = getelementptr inbounds nuw i8, ptr %5, i64 8
  store i64 1551, ptr %51, align 8, !tbaa !48
  %52 = getelementptr inbounds nuw i8, ptr %5, i64 16
  store ptr null, ptr %52, align 8, !tbaa !72
  %53 = call i32 @av_channel_layout_compare(ptr noundef nonnull %25, ptr noundef nonnull %5) #7
  %.not47 = icmp eq i32 %53, 0
  br i1 %.not47, label %54, label %57

54:                                               ; preds = %49
  %55 = getelementptr inbounds nuw i8, ptr %7, i64 77976
  store i32 63, ptr %55, align 8, !tbaa !73
  %56 = getelementptr inbounds nuw i8, ptr %0, i64 352
  call void @av_channel_layout_uninit(ptr noundef nonnull %56) #7
  store i32 1, ptr %56, align 8, !tbaa !43
  %.sroa.2.0..sroa_idx = getelementptr inbounds nuw i8, ptr %0, i64 356
  store i32 6, ptr %.sroa.2.0..sroa_idx, align 4, !tbaa !43
  %.sroa.3.0..sroa_idx = getelementptr inbounds nuw i8, ptr %0, i64 360
  store i64 1551, ptr %.sroa.3.0..sroa_idx, align 8, !tbaa !48
  %.sroa.4.0..sroa_idx = getelementptr inbounds nuw i8, ptr %0, i64 368
  store ptr null, ptr %.sroa.4.0..sroa_idx, align 8, !tbaa !74
  br label %58

57:                                               ; preds = %49
  call void (ptr, i32, ptr, ...) @av_log(ptr noundef nonnull %0, i32 noundef 24, ptr noundef nonnull @.str.18) #7
  br label %58

58:                                               ; preds = %38, %54, %57, %46, %18
  %59 = call i32 @pthread_once(ptr noundef nonnull @dcadec_init.init_static_once, ptr noundef nonnull @dcadec_init_static) #7
  br label %60

60:                                               ; preds = %15, %1, %58
  %.0 = phi i32 [ 0, %58 ], [ -12, %1 ], [ -12, %15 ]
  ret i32 %.0
}